target datalayout = "e-m:e-p270:32:32-p271:32:32-p272:64:64-i64:64-i128:128-f80:128-n8:16:32:64-S128"
target triple = "x86_64-pc-linux-gnu"

%"class.std::__cxx11::basic_string" = type { %"struct.std::__cxx11::basic_string<char>::_Alloc_hider", i64, %union.anon.382 }
%"struct.std::__cxx11::basic_string<char>::_Alloc_hider" = type { ptr }
%union.anon.382 = type { i64, [8 x i8] }
%"class.clang::ento::ExprEngine" = type <{ ptr, ptr, i8, [7 x i8], ptr, ptr, %"class.clang::ento::CoreEngine", ptr, %"class.clang::ento::ProgramStateManager", ptr, ptr, ptr, i32, [4 x i8], ptr, %"class.clang::ObjCNoReturn", %"class.clang::ento::PathSensitiveBugReporter", ptr, i32, [4 x i8] }>
%"class.clang::ento::CoreEngine" = type { ptr, %"class.clang::ento::ExplodedGraph", %"class.std::unique_ptr", %"class.std::unique_ptr", %"class.clang::ento::BlockCounter::Factory", %"class.std::vector.13", %"class.std::vector.18", ptr, %"class.clang::ento::DataTag::Factory" }
%"class.clang::ento::ExplodedGraph" = type { %"class.std::vector", %"class.std::vector", %"class.llvm::FoldingSet", %"class.clang::BumpVectorContext", i64, %"class.std::vector", %"class.std::vector", i32, i32 }
%"class.llvm::FoldingSet" = type { %"class.llvm::FoldingSetImpl" }
%"class.llvm::FoldingSetImpl" = type { %"class.llvm::FoldingSetBase" }
%"class.llvm::FoldingSetBase" = type { ptr, i32, i32 }
%"class.clang::BumpVectorContext" = type { %"class.llvm::PointerIntPair.9" }
%"class.llvm::PointerIntPair.9" = type { %"struct.llvm::detail::PunnedPointer.10" }
%"struct.llvm::detail::PunnedPointer.10" = type { [8 x i8] }
%"class.std::vector" = type { %"struct.std::_Vector_base" }
%"struct.std::_Vector_base" = type { %"struct.std::_Vector_base<clang::ento::ExplodedNode *, std::allocator<clang::ento::ExplodedNode *>>::_Vector_impl" }
%"struct.std::_Vector_base<clang::ento::ExplodedNode *, std::allocator<clang::ento::ExplodedNode *>>::_Vector_impl" = type { %"struct.std::_Vector_base<clang::ento::ExplodedNode *, std::allocator<clang::ento::ExplodedNode *>>::_Vector_impl_data" }
%"struct.std::_Vector_base<clang::ento::ExplodedNode *, std::allocator<clang::ento::ExplodedNode *>>::_Vector_impl_data" = type { ptr, ptr, ptr }
%"class.std::unique_ptr" = type { %"struct.std::__uniq_ptr_data" }
%"struct.std::__uniq_ptr_data" = type { %"class.std::__uniq_ptr_impl" }
%"class.std::__uniq_ptr_impl" = type { %"class.std::tuple" }
%"class.std::tuple" = type { %"struct.std::_Tuple_impl" }
%"struct.std::_Tuple_impl" = type { %"struct.std::_Head_base.12" }
%"struct.std::_Head_base.12" = type { ptr }
%"class.clang::ento::BlockCounter::Factory" = type { ptr }
%"class.std::vector.13" = type { %"struct.std::_Vector_base.14" }
%"struct.std::_Vector_base.14" = type { %"struct.std::_Vector_base<std::pair<clang::BlockEdge, const clang::ento::ExplodedNode *>, std::allocator<std::pair<clang::BlockEdge, const clang::ento::ExplodedNode *>>>::_Vector_impl" }
%"struct.std::_Vector_base<std::pair<clang::BlockEdge, const clang::ento::ExplodedNode *>, std::allocator<std::pair<clang::BlockEdge, const clang::ento::ExplodedNode *>>>::_Vector_impl" = type { %"struct.std::_Vector_base<std::pair<clang::BlockEdge, const clang::ento::ExplodedNode *>, std::allocator<std::pair<clang::BlockEdge, const clang::ento::ExplodedNode *>>>::_Vector_impl_data" }
%"struct.std::_Vector_base<std::pair<clang::BlockEdge, const clang::ento::ExplodedNode *>, std::allocator<std::pair<clang::BlockEdge, const clang::ento::ExplodedNode *>>>::_Vector_impl_data" = type { ptr, ptr, ptr }
%"class.std::vector.18" = type { %"struct.std::_Vector_base.19" }
%"struct.std::_Vector_base.19" = type { %"struct.std::_Vector_base<std::pair<const clang::CFGBlock *, const clang::ento::ExplodedNode *>, std::allocator<std::pair<const clang::CFGBlock *, const clang::ento::ExplodedNode *>>>::_Vector_impl" }
%"struct.std::_Vector_base<std::pair<const clang::CFGBlock *, const clang::ento::ExplodedNode *>, std::allocator<std::pair<const clang::CFGBlock *, const clang::ento::ExplodedNode *>>>::_Vector_impl" = type { %"struct.std::_Vector_base<std::pair<const clang::CFGBlock *, const clang::ento::ExplodedNode *>, std::allocator<std::pair<const clang::CFGBlock *, const clang::ento::ExplodedNode *>>>::_Vector_impl_data" }
%"struct.std::_Vector_base<std::pair<const clang::CFGBlock *, const clang::ento::ExplodedNode *>, std::allocator<std::pair<const clang::CFGBlock *, const clang::ento::ExplodedNode *>>>::_Vector_impl_data" = type { ptr, ptr, ptr }
%"class.clang::ento::DataTag::Factory" = type { %"class.std::vector.23" }
%"class.std::vector.23" = type { %"struct.std::_Vector_base.24" }
%"struct.std::_Vector_base.24" = type { %"struct.std::_Vector_base<std::unique_ptr<clang::ento::DataTag>, std::allocator<std::unique_ptr<clang::ento::DataTag>>>::_Vector_impl" }
%"struct.std::_Vector_base<std::unique_ptr<clang::ento::DataTag>, std::allocator<std::unique_ptr<clang::ento::DataTag>>>::_Vector_impl" = type { %"struct.std::_Vector_base<std::unique_ptr<clang::ento::DataTag>, std::allocator<std::unique_ptr<clang::ento::DataTag>>>::_Vector_impl_data" }
%"struct.std::_Vector_base<std::unique_ptr<clang::ento::DataTag>, std::allocator<std::unique_ptr<clang::ento::DataTag>>>::_Vector_impl_data" = type { ptr, ptr, ptr }
%"class.clang::ento::ProgramStateManager" = type { ptr, %"class.clang::ento::EnvironmentManager", %"class.std::unique_ptr.33", %"class.std::unique_ptr.41", %"class.llvm::ImmutableMap<void *, void *>::Factory", %"class.llvm::DenseMap.58", %"class.llvm::FoldingSet.61", %"class.std::unique_ptr.63", %"class.std::unique_ptr.71", ptr, %"class.std::vector.79" }
%"class.clang::ento::EnvironmentManager" = type { %"class.llvm::ImmutableMap<clang::ento::EnvironmentEntry, clang::ento::SVal>::Factory" }
%"class.llvm::ImmutableMap<clang::ento::EnvironmentEntry, clang::ento::SVal>::Factory" = type <{ %"class.llvm::ImutAVLFactory", i8, [7 x i8] }>
%"class.llvm::ImutAVLFactory" = type { %"class.llvm::DenseMap", i64, %"class.std::vector.28", %"class.std::vector.28" }
%"class.llvm::DenseMap" = type <{ ptr, i32, i32, i32, [4 x i8] }>
%"class.std::vector.28" = type { %"struct.std::_Vector_base.29" }
%"struct.std::_Vector_base.29" = type { %"struct.std::_Vector_base<llvm::ImutAVLTree<llvm::ImutKeyValueInfo<clang::ento::EnvironmentEntry, clang::ento::SVal>> *, std::allocator<llvm::ImutAVLTree<llvm::ImutKeyValueInfo<clang::ento::EnvironmentEntry, clang::ento::SVal>> *>>::_Vector_impl" }
%"struct.std::_Vector_base<llvm::ImutAVLTree<llvm::ImutKeyValueInfo<clang::ento::EnvironmentEntry, clang::ento::SVal>> *, std::allocator<llvm::ImutAVLTree<llvm::ImutKeyValueInfo<clang::ento::EnvironmentEntry, clang::ento::SVal>> *>>::_Vector_impl" = type { %"struct.std::_Vector_base<llvm::ImutAVLTree<llvm::ImutKeyValueInfo<clang::ento::EnvironmentEntry, clang::ento::SVal>> *, std::allocator<llvm::ImutAVLTree<llvm::ImutKeyValueInfo<clang::ento::EnvironmentEntry, clang::ento::SVal>> *>>::_Vector_impl_data" }
%"struct.std::_Vector_base<llvm::ImutAVLTree<llvm::ImutKeyValueInfo<clang::ento::EnvironmentEntry, clang::ento::SVal>> *, std::allocator<llvm::ImutAVLTree<llvm::ImutKeyValueInfo<clang::ento::EnvironmentEntry, clang::ento::SVal>> *>>::_Vector_impl_data" = type { ptr, ptr, ptr }
%"class.std::unique_ptr.33" = type { %"struct.std::__uniq_ptr_data.34" }
%"struct.std::__uniq_ptr_data.34" = type { %"class.std::__uniq_ptr_impl.35" }
%"class.std::__uniq_ptr_impl.35" = type { %"class.std::tuple.36" }
%"class.std::tuple.36" = type { %"struct.std::_Tuple_impl.37" }
%"struct.std::_Tuple_impl.37" = type { %"struct.std::_Head_base.40" }
%"struct.std::_Head_base.40" = type { ptr }
%"class.std::unique_ptr.41" = type { %"struct.std::__uniq_ptr_data.42" }
%"struct.std::__uniq_ptr_data.42" = type { %"class.std::__uniq_ptr_impl.43" }
%"class.std::__uniq_ptr_impl.43" = type { %"class.std::tuple.44" }
%"class.std::tuple.44" = type { %"struct.std::_Tuple_impl.45" }
%"struct.std::_Tuple_impl.45" = type { %"struct.std::_Head_base.48" }
%"struct.std::_Head_base.48" = type { ptr }
%"class.llvm::ImmutableMap<void *, void *>::Factory" = type <{ %"class.llvm::ImutAVLFactory.49", i8, [7 x i8] }>
%"class.llvm::ImutAVLFactory.49" = type { %"class.llvm::DenseMap.50", i64, %"class.std::vector.53", %"class.std::vector.53" }
%"class.llvm::DenseMap.50" = type <{ ptr, i32, i32, i32, [4 x i8] }>
%"class.std::vector.53" = type { %"struct.std::_Vector_base.54" }
%"struct.std::_Vector_base.54" = type { %"struct.std::_Vector_base<llvm::ImutAVLTree<llvm::ImutKeyValueInfo<void *, void *>> *, std::allocator<llvm::ImutAVLTree<llvm::ImutKeyValueInfo<void *, void *>> *>>::_Vector_impl" }
%"struct.std::_Vector_base<llvm::ImutAVLTree<llvm::ImutKeyValueInfo<void *, void *>> *, std::allocator<llvm::ImutAVLTree<llvm::ImutKeyValueInfo<void *, void *>> *>>::_Vector_impl" = type { %"struct.std::_Vector_base<llvm::ImutAVLTree<llvm::ImutKeyValueInfo<void *, void *>> *, std::allocator<llvm::ImutAVLTree<llvm::ImutKeyValueInfo<void *, void *>> *>>::_Vector_impl_data" }
%"struct.std::_Vector_base<llvm::ImutAVLTree<llvm::ImutKeyValueInfo<void *, void *>> *, std::allocator<llvm::ImutAVLTree<llvm::ImutKeyValueInfo<void *, void *>> *>>::_Vector_impl_data" = type { ptr, ptr, ptr }
%"class.llvm::DenseMap.58" = type <{ ptr, i32, i32, i32, [4 x i8] }>
%"class.llvm::FoldingSet.61" = type { %"class.llvm::FoldingSetImpl.62" }
%"class.llvm::FoldingSetImpl.62" = type { %"class.llvm::FoldingSetBase" }
%"class.std::unique_ptr.63" = type { %"struct.std::__uniq_ptr_data.64" }
%"struct.std::__uniq_ptr_data.64" = type { %"class.std::__uniq_ptr_impl.65" }
%"class.std::__uniq_ptr_impl.65" = type { %"class.std::tuple.66" }
%"class.std::tuple.66" = type { %"struct.std::_Tuple_impl.67" }
%"struct.std::_Tuple_impl.67" = type { %"struct.std::_Head_base.70" }
%"struct.std::_Head_base.70" = type { ptr }
%"class.std::unique_ptr.71" = type { %"struct.std::__uniq_ptr_data.72" }
%"struct.std::__uniq_ptr_data.72" = type { %"class.std::__uniq_ptr_impl.73" }
%"class.std::__uniq_ptr_impl.73" = type { %"class.std::tuple.74" }
%"class.std::tuple.74" = type { %"struct.std::_Tuple_impl.75" }
%"struct.std::_Tuple_impl.75" = type { %"struct.std::_Head_base.78" }
%"struct.std::_Head_base.78" = type { ptr }
%"class.std::vector.79" = type { %"struct.std::_Vector_base.80" }
%"struct.std::_Vector_base.80" = type { %"struct.std::_Vector_base<clang::ento::ProgramState *, std::allocator<clang::ento::ProgramState *>>::_Vector_impl" }
%"struct.std::_Vector_base<clang::ento::ProgramState *, std::allocator<clang::ento::ProgramState *>>::_Vector_impl" = type { %"struct.std::_Vector_base<clang::ento::ProgramState *, std::allocator<clang::ento::ProgramState *>>::_Vector_impl_data" }
%"struct.std::_Vector_base<clang::ento::ProgramState *, std::allocator<clang::ento::ProgramState *>>::_Vector_impl_data" = type { ptr, ptr, ptr }
%"class.clang::ObjCNoReturn" = type { %"class.clang::Selector", ptr, [2 x %"class.clang::Selector"] }
%"class.clang::Selector" = type { %"class.llvm::PointerIntPair.84" }
%"class.llvm::PointerIntPair.84" = type { %"struct.llvm::detail::PunnedPointer.85" }
%"struct.llvm::detail::PunnedPointer.85" = type { [8 x i8] }
%"class.clang::ento::PathSensitiveBugReporter" = type { %"class.clang::ento::BugReporter", ptr }
%"class.clang::ento::BugReporter" = type { ptr, ptr, ptr, %"class.llvm::FoldingSet.86", %"class.std::vector.88", %"class.clang::ento::BugSuppression", %"class.llvm::StringMap" }
%"class.llvm::FoldingSet.86" = type { %"class.llvm::FoldingSetImpl.87" }
%"class.llvm::FoldingSetImpl.87" = type { %"class.llvm::FoldingSetBase" }
%"class.std::vector.88" = type { %"struct.std::_Vector_base.89" }
%"struct.std::_Vector_base.89" = type { %"struct.std::_Vector_base<clang::ento::BugReportEquivClass *, std::allocator<clang::ento::BugReportEquivClass *>>::_Vector_impl" }
%"struct.std::_Vector_base<clang::ento::BugReportEquivClass *, std::allocator<clang::ento::BugReportEquivClass *>>::_Vector_impl" = type { %"struct.std::_Vector_base<clang::ento::BugReportEquivClass *, std::allocator<clang::ento::BugReportEquivClass *>>::_Vector_impl_data" }
%"struct.std::_Vector_base<clang::ento::BugReportEquivClass *, std::allocator<clang::ento::BugReportEquivClass *>>::_Vector_impl_data" = type { ptr, ptr, ptr }
%"class.clang::ento::BugSuppression" = type { %"class.llvm::DenseMap.93", ptr }
%"class.llvm::DenseMap.93" = type <{ ptr, i32, i32, i32, [4 x i8] }>
%"class.llvm::StringMap" = type { %"class.llvm::StringMapImpl" }
%"class.llvm::StringMapImpl" = type { ptr, i32, i32, i32, i32 }
%"class.llvm::StringRef" = type { ptr, i64 }
%"class.clang::ento::AnalysisManager" = type { %"class.clang::ento::BugReporterData", %"class.clang::AnalysisDeclContextManager", ptr, ptr, ptr, %"class.std::vector.602", ptr, ptr, ptr, ptr }
%"class.clang::ento::BugReporterData" = type { ptr }
%"class.clang::AnalysisDeclContextManager" = type <{ %"class.llvm::DenseMap.586", %"class.clang::LocationContextManager", %"class.clang::CFG::BuildOptions", %"class.std::unique_ptr.591", %"class.clang::BodyFarm", i8, [7 x i8] }>
%"class.llvm::DenseMap.586" = type <{ ptr, i32, i32, i32, [4 x i8] }>
%"class.clang::LocationContextManager" = type { %"class.llvm::FoldingSet.589", i64 }
%"class.llvm::FoldingSet.589" = type { %"class.llvm::FoldingSetImpl.590" }
%"class.llvm::FoldingSetImpl.590" = type { %"class.llvm::FoldingSetBase" }
%"class.clang::CFG::BuildOptions" = type { %"class.std::bitset", ptr, ptr, i8, i8, i8, i8, i8, i8, i8, i8, i8, i8, i8, i8, i8, i8, i8, i8 }
%"class.std::bitset" = type { %"struct.std::_Base_bitset" }
%"struct.std::_Base_bitset" = type { [4 x i64] }
%"class.std::unique_ptr.591" = type { %"struct.std::__uniq_ptr_data.592" }
%"struct.std::__uniq_ptr_data.592" = type { %"class.std::__uniq_ptr_impl.593" }
%"class.std::__uniq_ptr_impl.593" = type { %"class.std::tuple.594" }
%"class.std::tuple.594" = type { %"struct.std::_Tuple_impl.595" }
%"struct.std::_Tuple_impl.595" = type { %"struct.std::_Head_base.598" }
%"struct.std::_Head_base.598" = type { ptr }
%"class.clang::BodyFarm" = type { ptr, %"class.llvm::DenseMap.599", ptr }
%"class.llvm::DenseMap.599" = type <{ ptr, i32, i32, i32, [4 x i8] }>
%"class.std::vector.602" = type { %"struct.std::_Vector_base.603" }
%"struct.std::_Vector_base.603" = type { %"struct.std::_Vector_base<clang::ento::PathDiagnosticConsumer *, std::allocator<clang::ento::PathDiagnosticConsumer *>>::_Vector_impl" }
%"struct.std::_Vector_base<clang::ento::PathDiagnosticConsumer *, std::allocator<clang::ento::PathDiagnosticConsumer *>>::_Vector_impl" = type { %"struct.std::_Vector_base<clang::ento::PathDiagnosticConsumer *, std::allocator<clang::ento::PathDiagnosticConsumer *>>::_Vector_impl_data" }
%"struct.std::_Vector_base<clang::ento::PathDiagnosticConsumer *, std::allocator<clang::ento::PathDiagnosticConsumer *>>::_Vector_impl_data" = type { ptr, ptr, ptr }
%"class.clang::AnalyzerOptions" = type { %"class.llvm::RefCountedBase.607", %"class.std::vector.608", %"class.std::vector.613", %"class.llvm::StringMap.618", i32, i32, i32, %"class.std::__cxx11::basic_string", %"class.std::__cxx11::basic_string", %"class.std::__cxx11::basic_string", i32, i32, i32, i32, %"class.llvm::StringRef", i8, i8, i8, i8, i8, i8, i8, i8, i8, i8, i8, i8, i8, i8, i8, i8, i8, i8, i32, i32, i32, i8, i8, i8, i8, i8, i8, i8, i8, i8, i8, i8, i8, i8, i8, i8, i8, i8, i8, i8, i8, i8, i8, i8, i8, i8, i8, i8, i32, i32, i32, i32, i32, i32, i32, i32, i32, i32, i32, i32, i32, i32, %"class.llvm::StringRef", %"class.llvm::StringRef", %"class.llvm::StringRef", %"class.llvm::StringRef", %"class.llvm::StringRef", %"class.llvm::StringRef", %"class.llvm::StringRef", %"class.llvm::StringRef", %"class.llvm::StringRef" }
%"class.llvm::RefCountedBase.607" = type { i32 }
%"class.std::vector.608" = type { %"struct.std::_Vector_base.609" }
%"struct.std::_Vector_base.609" = type { %"struct.std::_Vector_base<std::pair<std::__cxx11::basic_string<char>, bool>, std::allocator<std::pair<std::__cxx11::basic_string<char>, bool>>>::_Vector_impl" }
%"struct.std::_Vector_base<std::pair<std::__cxx11::basic_string<char>, bool>, std::allocator<std::pair<std::__cxx11::basic_string<char>, bool>>>::_Vector_impl" = type { %"struct.std::_Vector_base<std::pair<std::__cxx11::basic_string<char>, bool>, std::allocator<std::pair<std::__cxx11::basic_string<char>, bool>>>::_Vector_impl_data" }
%"struct.std::_Vector_base<std::pair<std::__cxx11::basic_string<char>, bool>, std::allocator<std::pair<std::__cxx11::basic_string<char>, bool>>>::_Vector_impl_data" = type { ptr, ptr, ptr }
%"class.std::vector.613" = type { %"struct.std::_Vector_base.614" }
%"struct.std::_Vector_base.614" = type { %"struct.std::_Vector_base<std::__cxx11::basic_string<char>, std::allocator<std::__cxx11::basic_string<char>>>::_Vector_impl" }
%"struct.std::_Vector_base<std::__cxx11::basic_string<char>, std::allocator<std::__cxx11::basic_string<char>>>::_Vector_impl" = type { %"struct.std::_Vector_base<std::__cxx11::basic_string<char>, std::allocator<std::__cxx11::basic_string<char>>>::_Vector_impl_data" }
%"struct.std::_Vector_base<std::__cxx11::basic_string<char>, std::allocator<std::__cxx11::basic_string<char>>>::_Vector_impl_data" = type { ptr, ptr, ptr }
%"class.llvm::StringMap.618" = type { %"class.llvm::StringMapImpl" }
%"class.clang::CFG" = type { ptr, ptr, ptr, i32, [4 x i8], %"class.clang::BumpVectorContext", %"class.clang::BumpVector.756", %"class.std::vector.757", %"class.llvm::DenseMap.762" }
%"class.clang::BumpVector.756" = type { ptr, ptr, ptr }
%"class.std::vector.757" = type { %"struct.std::_Vector_base.758" }
%"struct.std::_Vector_base.758" = type { %"struct.std::_Vector_base<const clang::CFGBlock *, std::allocator<const clang::CFGBlock *>>::_Vector_impl" }
%"struct.std::_Vector_base<const clang::CFGBlock *, std::allocator<const clang::CFGBlock *>>::_Vector_impl" = type { %"struct.std::_Vector_base<const clang::CFGBlock *, std::allocator<const clang::CFGBlock *>>::_Vector_impl_data" }
%"struct.std::_Vector_base<const clang::CFGBlock *, std::allocator<const clang::CFGBlock *>>::_Vector_impl_data" = type { ptr, ptr, ptr }
%"class.llvm::DenseMap.762" = type <{ ptr, i32, i32, i32, [4 x i8] }>

; Function Attrs: mustprogress nounwind uwtable
define linkonce_odr hidden noundef i32 @_ZNK5clang3CFG14getNumBlockIDsEv(ptr noundef nonnull align 8 dereferenceable(112) %0) #1 comdat align 2 {
  %2 = alloca ptr, align 8
  store ptr %0, ptr %2, align 8
  %3 = load ptr, ptr %2, align 8
  %4 = getelementptr inbounds nuw %"class.clang::CFG", ptr %3, i32 0, i32 3
  %5 = load i32, ptr %4, align 8
  ret i32 %5
}

; Function Attrs: mustprogress nounwind uwtable
define dso_local noundef zeroext i1 @_ZNK5clang4ento10ExprEngine6isHugeEPNS_19AnalysisDeclContextE(ptr noundef nonnull align 8 dereferenceable(796) %0, ptr noundef %1) #1 align 2 {
  %3 = alloca ptr, align 8
  %4 = alloca ptr, align 8
  %5 = alloca ptr, align 8
  store ptr %0, ptr %3, align 8
  store ptr %1, ptr %4, align 8
  %6 = load ptr, ptr %3, align 8
  %7 = load ptr, ptr %4, align 8
  %8 = call noundef ptr @_ZN5clang19AnalysisDeclContext6getCFGEv(ptr noundef nonnull align 8 dereferenceable(248) %7)
  store ptr %8, ptr %5, align 8
  %9 = load ptr, ptr %5, align 8
  %10 = call noundef i32 @_ZNK5clang3CFG14getNumBlockIDsEv(ptr noundef nonnull align 8 dereferenceable(112) %9)
  %11 = getelementptr inbounds nuw %"class.clang::ento::ExprEngine", ptr %6, i32 0, i32 4
  %12 = load ptr, ptr %11, align 8
  %13 = getelementptr inbounds nuw %"class.clang::ento::AnalysisManager", ptr %12, i32 0, i32 9
  %14 = load ptr, ptr %13, align 8
  %15 = getelementptr inbounds nuw %"class.clang::AnalyzerOptions", ptr %14, i32 0, i32 71
  %16 = load i32, ptr %15, align 4
  %17 = icmp ugt i32 %10, %16
  ret i1 %17
}