; Function Attrs: mustprogress nounwind uwtable
define dso_local noundef zeroext i1 @_ZNK5clang4ento10ExprEngine6isHugeEPNS_19AnalysisDeclContextE(ptr nocapture noundef nonnull readonly align 8 dereferenceable(796) %0, ptr noundef nonnull %1) local_unnamed_addr #0 align 2 {
  %3 = tail call noundef ptr @_ZN5clang19AnalysisDeclContext6getCFGEv(ptr noundef nonnull align 8 dereferenceable(248) %1) #17
  %4 = getelementptr inbounds nuw i8, ptr %3, i64 24
  %5 = load i32, ptr %4, align 8
  %6 = getelementptr inbounds nuw i8, ptr %0, i64 24
  %7 = load ptr, ptr %6, align 8
  %8 = getelementptr inbounds nuw i8, ptr %7, i64 248
  %9 = load ptr, ptr %8, align 8
  %10 = getelementptr inbounds nuw i8, ptr %9, i64 316
  %11 = load i32, ptr %10, align 4
  %12 = icmp ugt i32 %5, %11
  ret i1 %12
}